target datalayout = "e-m:e-p270:32:32-p271:32:32-p272:64:64-i64:64-i128:128-f80:128-n8:16:32:64-S128"
target triple = "x86_64-pc-linux-gnu"

%struct.CLzmaDec = type { %struct._CLzmaProps, ptr, ptr, ptr, i32, i32, i64, i64, i32, i32, i32, [4 x i32], i32, i32, i32, i32, i32, [20 x i8] }
%struct._CLzmaProps = type { i32, i32, i32, i32 }

; Function Attrs: nounwind uwtable
define void @LzmaDec_InitDicAndState(ptr noundef %0, i32 noundef %1, i32 noundef %2) #0 {
  %4 = alloca ptr, align 8
  %5 = alloca i32, align 4
  %6 = alloca i32, align 4
  store ptr %0, ptr %4, align 8
  store i32 %1, ptr %5, align 4
  store i32 %2, ptr %6, align 4
  %7 = load ptr, ptr %4, align 8
  %8 = getelementptr inbounds %struct.CLzmaDec, ptr %7, i32 0, i32 13
  store i32 1, ptr %8, align 8
  %9 = load ptr, ptr %4, align 8
  %10 = getelementptr inbounds %struct.CLzmaDec, ptr %9, i32 0, i32 12
  store i32 0, ptr %10, align 4
  %11 = load ptr, ptr %4, align 8
  %12 = getelementptr inbounds %struct.CLzmaDec, ptr %11, i32 0, i32 16
  store i32 0, ptr %12, align 4
  %13 = load i32, ptr %5, align 4
  %14 = icmp ne i32 %13, 0
  br i1 %14, label %15, label %22

15:                                               ; preds = %3
  %16 = load ptr, ptr %4, align 8
  %17 = getelementptr inbounds %struct.CLzmaDec, ptr %16, i32 0, i32 8
  store i32 0, ptr %17, align 8
  %18 = load ptr, ptr %4, align 8
  %19 = getelementptr inbounds %struct.CLzmaDec, ptr %18, i32 0, i32 9
  store i32 0, ptr %19, align 4
  %20 = load ptr, ptr %4, align 8
  %21 = getelementptr inbounds %struct.CLzmaDec, ptr %20, i32 0, i32 14
  store i32 1, ptr %21, align 4
  br label %22

22:                                               ; preds = %15, %3
  %23 = load i32, ptr %6, align 4
  %24 = icmp ne i32 %23, 0
  br i1 %24, label %25, label %28

25:                                               ; preds = %22
  %26 = load ptr, ptr %4, align 8
  %27 = getelementptr inbounds %struct.CLzmaDec, ptr %26, i32 0, i32 14
  store i32 1, ptr %27, align 4
  br label %28

28:                                               ; preds = %25, %22
  ret void
}

; Function Attrs: nounwind uwtable
define void @LzmaDec_Init(ptr noundef %0) #0 {
  %2 = alloca ptr, align 8
  store ptr %0, ptr %2, align 8
  %3 = load ptr, ptr %2, align 8
  %4 = getelementptr inbounds %struct.CLzmaDec, ptr %3, i32 0, i32 6
  store i64 0, ptr %4, align 8
  %5 = load ptr, ptr %2, align 8
  call void @LzmaDec_InitDicAndState(ptr noundef %5, i32 noundef 1, i32 noundef 1)
  ret void
}