; Function Attrs: mustprogress nofree norecurse nosync nounwind willreturn memory(argmem: write) uwtable
define void @LzmaDec_Init(ptr nocapture noundef writeonly %0) local_unnamed_addr #0 {
  %2 = getelementptr inbounds i8, ptr %0, i64 48
  store i64 0, ptr %2, align 8
  %3 = getelementptr inbounds i8, ptr %0, i64 96
  store i32 1, ptr %3, align 8
  %4 = getelementptr inbounds i8, ptr %0, i64 92
  store i32 0, ptr %4, align 4
  %5 = getelementptr inbounds i8, ptr %0, i64 108
  store i32 0, ptr %5, align 4
  %6 = getelementptr inbounds i8, ptr %0, i64 64
  store i32 0, ptr %6, align 8
  %7 = getelementptr inbounds i8, ptr %0, i64 68
  store i32 0, ptr %7, align 4
  %8 = getelementptr inbounds i8, ptr %0, i64 100
  store i32 1, ptr %8, align 4
  ret void
}